target datalayout = "e-m:e-p270:32:32-p271:32:32-p272:64:64-i64:64-i128:128-f80:128-n8:16:32:64-S128"
target triple = "x86_64-pc-linux-gnu"

%struct.srpsrvparm_st = type { ptr, ptr, ptr }

@bio_err = external global ptr, align 8
@.str.1 = private unnamed_addr constant [40 x i8] c"Failed to initialize SRP verifier file\0A\00", align 1
@.str.2 = private unnamed_addr constant [49 x i8] c"Cannot initialize SRP verifier file \22%s\22:ret=%d\0A\00", align 1

; Function Attrs: nounwind uwtable
define i32 @set_up_srp_verifier_file(ptr noundef %0, ptr noundef %1, ptr noundef %2, ptr noundef %3) #0 {
  %5 = alloca i32, align 4
  %6 = alloca ptr, align 8
  %7 = alloca ptr, align 8
  %8 = alloca ptr, align 8
  %9 = alloca ptr, align 8
  %10 = alloca i32, align 4
  %11 = alloca i32, align 4
  store ptr %0, ptr %6, align 8, !tbaa !3
  store ptr %1, ptr %7, align 8, !tbaa !32
  store ptr %2, ptr %8, align 8, !tbaa !24
  store ptr %3, ptr %9, align 8, !tbaa !24
  call void @llvm.lifetime.start.p0(i64 4, ptr %10) #3
  %12 = load ptr, ptr %8, align 8, !tbaa !24
  %13 = call ptr @SRP_VBASE_new(ptr noundef %12)
  %14 = load ptr, ptr %7, align 8, !tbaa !32
  %15 = getelementptr inbounds nuw %struct.srpsrvparm_st, ptr %14, i32 0, i32 1
  store ptr %13, ptr %15, align 8, !tbaa !34
  %16 = load ptr, ptr %7, align 8, !tbaa !32
  %17 = getelementptr inbounds nuw %struct.srpsrvparm_st, ptr %16, i32 0, i32 2
  store ptr null, ptr %17, align 8, !tbaa !38
  %18 = load ptr, ptr %7, align 8, !tbaa !32
  %19 = getelementptr inbounds nuw %struct.srpsrvparm_st, ptr %18, i32 0, i32 0
  store ptr null, ptr %19, align 8, !tbaa !39
  %20 = load ptr, ptr %7, align 8, !tbaa !32
  %21 = getelementptr inbounds nuw %struct.srpsrvparm_st, ptr %20, i32 0, i32 1
  %22 = load ptr, ptr %21, align 8, !tbaa !34
  %23 = icmp eq ptr %22, null
  br i1 %23, label %24, label %27

24:                                               ; preds = %4
  %25 = load ptr, ptr @bio_err, align 8, !tbaa !15
  %26 = call i32 (ptr, ptr, ...) @BIO_printf(ptr noundef %25, ptr noundef @.str.1)
  store i32 0, ptr %5, align 4
  store i32 1, ptr %11, align 4
  br label %45

27:                                               ; preds = %4
  %28 = load ptr, ptr %7, align 8, !tbaa !32
  %29 = getelementptr inbounds nuw %struct.srpsrvparm_st, ptr %28, i32 0, i32 1
  %30 = load ptr, ptr %29, align 8, !tbaa !34
  %31 = load ptr, ptr %9, align 8, !tbaa !24
  %32 = call i32 @SRP_VBASE_init(ptr noundef %30, ptr noundef %31)
  store i32 %32, ptr %10, align 4, !tbaa !10
  %33 = icmp ne i32 %32, 0
  br i1 %33, label %34, label %39

34:                                               ; preds = %27
  %35 = load ptr, ptr @bio_err, align 8, !tbaa !15
  %36 = load ptr, ptr %9, align 8, !tbaa !24
  %37 = load i32, ptr %10, align 4, !tbaa !10
  %38 = call i32 (ptr, ptr, ...) @BIO_printf(ptr noundef %35, ptr noundef @.str.2, ptr noundef %36, i32 noundef %37)
  store i32 0, ptr %5, align 4
  store i32 1, ptr %11, align 4
  br label %45

39:                                               ; preds = %27
  %40 = load ptr, ptr %6, align 8, !tbaa !3
  call void @SSL_CTX_set_verify(ptr noundef %40, i32 noundef 0, ptr noundef @verify_callback)
  %41 = load ptr, ptr %6, align 8, !tbaa !3
  %42 = call i32 @SSL_CTX_set_srp_cb_arg(ptr noundef %41, ptr noundef %7)
  %43 = load ptr, ptr %6, align 8, !tbaa !3
  %44 = call i32 @SSL_CTX_set_srp_username_callback(ptr noundef %43, ptr noundef @ssl_srp_server_param_cb)
  store i32 1, ptr %5, align 4
  store i32 1, ptr %11, align 4
  br label %45

45:                                               ; preds = %39, %34, %24
  call void @llvm.lifetime.end.p0(i64 4, ptr %10) #3
  %46 = load i32, ptr %5, align 4
  ret i32 %46
}