; Function Attrs: nounwind uwtable
define range(i32 0, 2) i32 @set_up_srp_verifier_file(ptr noundef %0, ptr noundef %1, ptr noundef %2, ptr noundef %3) local_unnamed_addr #0 {
  %5 = alloca ptr, align 8
  store ptr %1, ptr %5, align 8, !tbaa !23
  %6 = tail call ptr @SRP_VBASE_new(ptr noundef %2) #4
  %7 = getelementptr inbounds nuw i8, ptr %1, i64 8
  store ptr %6, ptr %7, align 8, !tbaa !25
  %8 = getelementptr inbounds nuw i8, ptr %1, i64 16
  store ptr null, ptr %8, align 8, !tbaa !29
  store ptr null, ptr %1, align 8, !tbaa !30
  %9 = icmp eq ptr %6, null
  br i1 %9, label %10, label %13

10:                                               ; preds = %4
  %11 = load ptr, ptr @bio_err, align 8, !tbaa !12
  %12 = tail call i32 (ptr, ptr, ...) @BIO_printf(ptr noundef %11, ptr noundef nonnull @.str.1) #4
  br label %21

13:                                               ; preds = %4
  %14 = tail call i32 @SRP_VBASE_init(ptr noundef nonnull %6, ptr noundef %3) #4
  %.not = icmp eq i32 %14, 0
  br i1 %.not, label %18, label %15

15:                                               ; preds = %13
  %16 = load ptr, ptr @bio_err, align 8, !tbaa !12
  %17 = tail call i32 (ptr, ptr, ...) @BIO_printf(ptr noundef %16, ptr noundef nonnull @.str.2, ptr noundef %3, i32 noundef %14) #4
  br label %21

18:                                               ; preds = %13
  tail call void @SSL_CTX_set_verify(ptr noundef %0, i32 noundef 0, ptr noundef nonnull @verify_callback) #4
  %19 = call i32 @SSL_CTX_set_srp_cb_arg(ptr noundef %0, ptr noundef nonnull %5) #4
  %20 = call i32 @SSL_CTX_set_srp_username_callback(ptr noundef %0, ptr noundef nonnull @ssl_srp_server_param_cb) #4
  br label %21

21:                                               ; preds = %18, %15, %10
  %.0 = phi i32 [ 0, %10 ], [ 0, %15 ], [ 1, %18 ]
  ret i32 %.0
}